
Allocating common symbols
Common symbol       size              file

exti_irq_handle     0x80              1c102_Interrupt.o
STS                 0x1               ls1c102_i2c.o
_rand_next          0x4               ls1x_printf.o
SystemFreq          0x4               ls1x_clock.o
Flash_pe            0x1               ls1x_flash.o

Discarded input sections

 .text          0x0000000000000000       0x14 start.o
 .data          0x0000000000000000        0x0 start.o
 .bss           0x0000000000000000        0x0 start.o
 .data          0x0000000000000000        0x0 serial.o
 .bss           0x0000000000000000        0x0 serial.o
 .data          0x0000000000000000        0x0 wakeup.o
 .bss           0x0000000000000000        0x0 wakeup.o
 .text          0x0000000000000000        0x0 UserGpio.o
 .data          0x0000000000000000        0x0 UserGpio.o
 .bss           0x0000000000000000        0x0 UserGpio.o
 .text.GPIOInit
                0x0000000000000000       0x98 UserGpio.o
 .comment       0x0000000000000000       0x12 UserGpio.o
 .eh_frame      0x0000000000000000       0x3c UserGpio.o
 .text          0x0000000000000000        0x0 ls1x_clock.o
 .data          0x0000000000000000        0x0 ls1x_clock.o
 .bss           0x0000000000000000        0x0 ls1x_clock.o
 .text.CLOCK_IramToDramEn
                0x0000000000000000       0x38 ls1x_clock.o
 .text.CLOCK_WaitForHSEStartUp
                0x0000000000000000       0x70 ls1x_clock.o
 .text.CLOCK_WaitForLSEStartUp
                0x0000000000000000       0x50 ls1x_clock.o
 .text.CLOCK_HSEConfig
                0x0000000000000000       0x98 ls1x_clock.o
 .text.CLOCK_LSEConfig
                0x0000000000000000       0x78 ls1x_clock.o
 .text.CLOCK_StructInit
                0x0000000000000000       0x5c ls1x_clock.o
 .text.CLOCK_Init
                0x0000000000000000      0x23c ls1x_clock.o
 .text.CLOCK_GetFlagStatus
                0x0000000000000000       0x3c ls1x_clock.o
 .text.CLOCK_GetClocksFreq
                0x0000000000000000       0x6c ls1x_clock.o
 .text.SystemClockInit
                0x0000000000000000       0x98 ls1x_clock.o
 .comment       0x0000000000000000       0x12 ls1x_clock.o
 .eh_frame      0x0000000000000000      0x184 ls1x_clock.o
 COMMON         0x0000000000000000        0x4 ls1x_clock.o
 .text          0x0000000000000000        0x0 ls1x_common.o
 .data          0x0000000000000000        0x0 ls1x_common.o
 .bss           0x0000000000000000        0x0 ls1x_common.o
 .text.IsGlobalIntOpen
                0x0000000000000000       0x38 ls1x_common.o
 .text.Set_soft_int
                0x0000000000000000       0x24 ls1x_common.o
 .text.Set_soft_stop
                0x0000000000000000       0x24 ls1x_common.o
 .text.Wake_256sec_Set
                0x0000000000000000       0xa8 ls1x_common.o
 .eh_frame      0x0000000000000000      0x15c ls1x_common.o
 .text          0x0000000000000000        0x0 ls1x_exti.o
 .data          0x0000000000000000        0x0 ls1x_exti.o
 .bss           0x0000000000000000        0x0 ls1x_exti.o
 .text.EXTI_DeInit
                0x0000000000000000       0x40 ls1x_exti.o
 .text.EXTI_GetFlagStatus
                0x0000000000000000       0x50 ls1x_exti.o
 .text.EXTI_ClearFlag
                0x0000000000000000       0x3c ls1x_exti.o
 .text.EXTI_GetITStatus
                0x0000000000000000       0x70 ls1x_exti.o
 .eh_frame      0x0000000000000000       0xfc ls1x_exti.o
 .text          0x0000000000000000        0x0 ls1x_flash.o
 .data          0x0000000000000000        0x0 ls1x_flash.o
 .bss           0x0000000000000000        0x0 ls1x_flash.o
 .text.FLASH_ErasePage
                0x0000000000000000       0x58 ls1x_flash.o
 .text.FLASH_EraseUserFlash
                0x0000000000000000       0x9c ls1x_flash.o
 .text.FLASH_ReadPage
                0x0000000000000000       0xa4 ls1x_flash.o
 .text.FLASH_WitePage
                0x0000000000000000      0x494 ls1x_flash.o
 .text.FLASH_WaitForPeEnd
                0x0000000000000000       0x80 ls1x_flash.o
 .text.FLASH_GetStatus
                0x0000000000000000       0x34 ls1x_flash.o
 .text.FLASH_GetFlagStatus
                0x0000000000000000       0x4c ls1x_flash.o
 .text.FLASH_ITConfig
                0x0000000000000000       0x64 ls1x_flash.o
 .text.FLASH_ITCmd
                0x0000000000000000       0x68 ls1x_flash.o
 .text.FLASH_ClearIT
                0x0000000000000000       0x50 ls1x_flash.o
 .text.FLASH_WiteTest
                0x0000000000000000       0xac ls1x_flash.o
 .rodata        0x0000000000000000        0xa ls1x_flash.o
 .text.FLASH_ReadTest
                0x0000000000000000       0xc0 ls1x_flash.o
 .comment       0x0000000000000000       0x12 ls1x_flash.o
 .eh_frame      0x0000000000000000      0x1cc ls1x_flash.o
 COMMON         0x0000000000000000        0x1 ls1x_flash.o
 .text          0x0000000000000000        0x0 ls1x_gpio.o
 .data          0x0000000000000000        0x0 ls1x_gpio.o
 .bss           0x0000000000000000        0x0 ls1x_gpio.o
 .eh_frame      0x0000000000000000       0x38 ls1x_gpio.o
 .text          0x0000000000000000        0x0 ls1x_latimer.o
 .data          0x0000000000000000        0x0 ls1x_latimer.o
 .bss           0x0000000000000000        0x0 ls1x_latimer.o
 .text.SetTime  0x0000000000000000       0x54 ls1x_latimer.o
 .text.CompareTime
                0x0000000000000000       0x50 ls1x_latimer.o
 .eh_frame      0x0000000000000000      0x19c ls1x_latimer.o
 .text          0x0000000000000000        0x0 ls1x_logo.o
 .data          0x0000000000000000        0x0 ls1x_logo.o
 .bss           0x0000000000000000        0x0 ls1x_logo.o
 .rodata        0x0000000000000000      0x387 ls1x_logo.o
 .text.ls1x_logo
                0x0000000000000000       0x9c ls1x_logo.o
 .comment       0x0000000000000000       0x12 ls1x_logo.o
 .eh_frame      0x0000000000000000       0x3c ls1x_logo.o
 .text          0x0000000000000000        0x0 ls1x_pmu.o
 .data          0x0000000000000000        0x0 ls1x_pmu.o
 .bss           0x0000000000000000        0x0 ls1x_pmu.o
 .text.PMU_GetRstRrc
                0x0000000000000000       0x6c ls1x_pmu.o
 .text.PMU_GetBootSpiStatus
                0x0000000000000000       0x50 ls1x_pmu.o
 .comment       0x0000000000000000       0x12 ls1x_pmu.o
 .eh_frame      0x0000000000000000       0x58 ls1x_pmu.o
 .text          0x0000000000000000        0x0 ls1x_printf.o
 .data          0x0000000000000000        0x0 ls1x_printf.o
 .bss           0x0000000000000000        0x0 ls1x_printf.o
 .rodata        0x0000000000000000        0x7 ls1x_printf.o
 .text.printBuf
                0x0000000000000000       0x78 ls1x_printf.o
 .text.mygetchar
                0x0000000000000000       0x38 ls1x_printf.o
 .text.vsputs   0x0000000000000000       0x54 ls1x_printf.o
 .text.vsputchar
                0x0000000000000000       0x44 ls1x_printf.o
 .text.vsprintbase
                0x0000000000000000      0x17c ls1x_printf.o
 .text.vsprintf
                0x0000000000000000      0x3d8 ls1x_printf.o
 .rodata.vsprintf
                0x0000000000000000      0x150 ls1x_printf.o
 .text.sprintf  0x0000000000000000       0x6c ls1x_printf.o
 .text.rand     0x0000000000000000       0x5c ls1x_printf.o
 .eh_frame      0x0000000000000000      0x1dc ls1x_printf.o
 COMMON         0x0000000000000000        0x4 ls1x_printf.o
 .text          0x0000000000000000        0x0 ls1x_rtc.o
 .data          0x0000000000000000        0x0 ls1x_rtc.o
 .bss           0x0000000000000000        0x0 ls1x_rtc.o
 .eh_frame      0x0000000000000000       0x80 ls1x_rtc.o
 .text          0x0000000000000000        0x0 ls1x_spi.o
 .data          0x0000000000000000        0x0 ls1x_spi.o
 .bss           0x0000000000000000        0x0 ls1x_spi.o
 .rodata        0x0000000000000000       0x42 ls1x_spi.o
 .text.Spi_FreqDiv
                0x0000000000000000      0x140 ls1x_spi.o
 .text.Spi_Init
                0x0000000000000000       0x70 ls1x_spi.o
 .text.Spi_Send
                0x0000000000000000       0x40 ls1x_spi.o
 .text.Spiflash_Wrsr
                0x0000000000000000       0x5c ls1x_spi.o
 .text.Spiflash_Rdsr2
                0x0000000000000000       0x4c ls1x_spi.o
 .text.Spiflash_Rdsr3
                0x0000000000000000       0x4c ls1x_spi.o
 .text.Spiflash_Sector_Erase
                0x0000000000000000       0x90 ls1x_spi.o
 .text.SPI_TransByte
                0x0000000000000000       0xe8 ls1x_spi.o
 .text.SpiFlashCsn0Enable
                0x0000000000000000       0x28 ls1x_spi.o
 .text.SpiFlashCsn0Disable
                0x0000000000000000       0x28 ls1x_spi.o
 .eh_frame      0x0000000000000000      0x320 ls1x_spi.o
 .text          0x0000000000000000        0x0 ls1x_string.o
 .data          0x0000000000000000        0x0 ls1x_string.o
 .bss           0x0000000000000000        0x0 ls1x_string.o
 .text.memcmp   0x0000000000000000       0x88 ls1x_string.o
 .text.memcpy   0x0000000000000000       0x70 ls1x_string.o
 .text.memset   0x0000000000000000       0x60 ls1x_string.o
 .text.strstr   0x0000000000000000       0xe0 ls1x_string.o
 .text.pstrstr  0x0000000000000000       0xc8 ls1x_string.o
 .text.strchr   0x0000000000000000       0x80 ls1x_string.o
 .text.atoi     0x0000000000000000       0xe4 ls1x_string.o
 .text.itoa     0x0000000000000000      0x17c ls1x_string.o
 .text.strcat   0x0000000000000000       0xa0 ls1x_string.o
 .text.strcpy   0x0000000000000000       0x5c ls1x_string.o
 .text.strlen   0x0000000000000000       0x4c ls1x_string.o
 .text.isContained
                0x0000000000000000       0x78 ls1x_string.o
 .text.strtok_r
                0x0000000000000000      0x1d4 ls1x_string.o
 .rodata        0x0000000000000000        0x5 ls1x_string.o
 .text.hex_to_str
                0x0000000000000000       0x8c ls1x_string.o
 .text.str_to_hex
                0x0000000000000000       0xf4 ls1x_string.o
 .text.atohex   0x0000000000000000      0x164 ls1x_string.o
 .eh_frame      0x0000000000000000      0x280 ls1x_string.o
 .text          0x0000000000000000        0x0 ls1x_uart.o
 .data          0x0000000000000000        0x0 ls1x_uart.o
 .bss           0x0000000000000000        0x0 ls1x_uart.o
 .text.UART_Init
                0x0000000000000000      0x1f0 ls1x_uart.o
 .text.UART_StructInit
                0x0000000000000000       0x7c ls1x_uart.o
 .text.UART_ITConfig
                0x0000000000000000       0x88 ls1x_uart.o
 .text.UART_ReceiveData
                0x0000000000000000       0x4c ls1x_uart.o
 .text.UART_GetFlagStatus
                0x0000000000000000       0x64 ls1x_uart.o
 .text.UART_GetITStatus
                0x0000000000000000       0x60 ls1x_uart.o
 .text.UART_ClearITPendingBit
                0x0000000000000000       0xa0 ls1x_uart.o
 .text.x_getchar
                0x0000000000000000       0x2c ls1x_uart.o
 .rodata        0x0000000000000000       0x10 ls1x_uart.o
 .text.UartInit
                0x0000000000000000       0xa4 ls1x_uart.o
 .text.Uart0_init_buad
                0x0000000000000000       0x84 ls1x_uart.o
 .text.Uart1_init
                0x0000000000000000       0x68 ls1x_uart.o
 .eh_frame      0x0000000000000000      0x1e8 ls1x_uart.o
 .text          0x0000000000000000        0x0 ls1x_wdg.o
 .data          0x0000000000000000        0x0 ls1x_wdg.o
 .bss           0x0000000000000000        0x0 ls1x_wdg.o
 .text.WdgInit  0x0000000000000000       0x30 ls1x_wdg.o
 .eh_frame      0x0000000000000000       0x78 ls1x_wdg.o
 .text          0x0000000000000000        0x0 soc_AT24CXX.o
 .data          0x0000000000000000        0x0 soc_AT24CXX.o
 .bss           0x0000000000000000        0x0 soc_AT24CXX.o
 .text.AT24CXX_WriteByte
                0x0000000000000000       0x9c soc_AT24CXX.o
 .text.AT24CXX_ReadByte
                0x0000000000000000       0xb0 soc_AT24CXX.o
 .text.AT24CXX_Read2Byte
                0x0000000000000000       0xcc soc_AT24CXX.o
 .comment       0x0000000000000000       0x12 soc_AT24CXX.o
 .eh_frame      0x0000000000000000       0x8c soc_AT24CXX.o
 .text          0x0000000000000000        0x0 soc_gpio.o
 .data          0x0000000000000000        0x0 soc_gpio.o
 .bss           0x0000000000000000        0x0 soc_gpio.o
 .text.gpio_read
                0x0000000000000000       0xac soc_gpio.o
 .eh_frame      0x0000000000000000       0x80 soc_gpio.o
 .text          0x0000000000000000        0x0 soc_hpet.o
 .data          0x0000000000000000        0x0 soc_hpet.o
 .bss           0x0000000000000000        0x0 soc_hpet.o
 .text.timer_interrupt
                0x0000000000000000       0x74 soc_hpet.o
 .comment       0x0000000000000000       0x12 soc_hpet.o
 .eh_frame      0x0000000000000000       0x38 soc_hpet.o
 .text          0x0000000000000000        0x0 soc_i2c.o
 .data          0x0000000000000000        0x0 soc_i2c.o
 .bss           0x0000000000000000        0x0 soc_i2c.o
 .text.soc_I2C_delay
                0x0000000000000000       0x34 soc_i2c.o
 .text.soc_I2C_StructInit
                0x0000000000000000       0x48 soc_i2c.o
 .text.soc_I2C_Init
                0x0000000000000000       0xdc soc_i2c.o
 .text.soc_I2C_GenerateSTART
                0x0000000000000000       0x44 soc_i2c.o
 .text.soc_I2C_GenerateSTOP
                0x0000000000000000       0x44 soc_i2c.o
 .text.soc_I2C_SendData
                0x0000000000000000       0x48 soc_i2c.o
 .text.soc_I2C_ReceiveData
                0x0000000000000000       0x58 soc_i2c.o
 .text.soc_I2C_wait
                0x0000000000000000       0x48 soc_i2c.o
 .text.soc_I2C_Unlock
                0x0000000000000000       0x40 soc_i2c.o
 .comment       0x0000000000000000       0x12 soc_i2c.o
 .eh_frame      0x0000000000000000      0x144 soc_i2c.o
 .text          0x0000000000000000        0x0 soc_printf.o
 .data          0x0000000000000000        0x0 soc_printf.o
 .bss           0x0000000000000000        0x0 soc_printf.o
 .eh_frame      0x0000000000000000       0xb0 soc_printf.o
 .text          0x0000000000000000        0x0 soc_pwm.o
 .data          0x0000000000000000        0x0 soc_pwm.o
 .bss           0x0000000000000000        0x0 soc_pwm.o
 .text.pwm_init
                0x0000000000000000       0x58 soc_pwm.o
 .text.pwm_set  0x0000000000000000       0x44 soc_pwm.o
 .text.pwm_steering_engine_init
                0x0000000000000000       0x5c soc_pwm.o
 .text.pwm_steering_engine_set
                0x0000000000000000       0x50 soc_pwm.o
 .comment       0x0000000000000000       0x12 soc_pwm.o
 .eh_frame      0x0000000000000000       0x9c soc_pwm.o
 .text          0x0000000000000000        0x0 soc_spi.o
 .data          0x0000000000000000        0x0 soc_spi.o
 .bss           0x0000000000000000        0x0 soc_spi.o
 .text.soc_Spi_FreqDiv
                0x0000000000000000       0x54 soc_spi.o
 .text.soc_Spi_Init
                0x0000000000000000       0x84 soc_spi.o
 .text.soc_Spi_Write_Read_1to4
                0x0000000000000000       0xbc soc_spi.o
 .text.soc_Spi_Cs_Down
                0x0000000000000000       0x58 soc_spi.o
 .text.soc_Spi_Cs_Up
                0x0000000000000000       0x54 soc_spi.o
 .text.soc_Spi_Send
                0x0000000000000000       0x40 soc_spi.o
 .comment       0x0000000000000000       0x12 soc_spi.o
 .eh_frame      0x0000000000000000       0xf0 soc_spi.o
 .text          0x0000000000000000        0x0 soc_uart.o
 .data          0x0000000000000000        0x0 soc_uart.o
 .bss           0x0000000000000000        0x0 soc_uart.o
 .text.uart1_interrupt
                0x0000000000000000       0x38 soc_uart.o
 .comment       0x0000000000000000       0x12 soc_uart.o
 .eh_frame      0x0000000000000000       0x34 soc_uart.o
 .text          0x0000000000000000        0x0 soc_w25qxx.o
 .data          0x0000000000000000        0x0 soc_w25qxx.o
 .bss           0x0000000000000000        0x0 soc_w25qxx.o
 .text.W25QXX_ReadID
                0x0000000000000000       0x78 soc_w25qxx.o
 .comment       0x0000000000000000       0x12 soc_w25qxx.o
 .eh_frame      0x0000000000000000       0x3c soc_w25qxx.o
 .text          0x0000000000000000        0x0 ls1c102_i2c.o
 .data          0x0000000000000000        0x0 ls1c102_i2c.o
 .bss           0x0000000000000000        0x0 ls1c102_i2c.o
 .text.I2C_ITConfig
                0x0000000000000000       0x6c ls1c102_i2c.o
 .text.I2C_ITCmd
                0x0000000000000000       0x90 ls1c102_i2c.o
 .text.I2C_GenerateSTART
                0x0000000000000000       0x6c ls1c102_i2c.o
 .text.I2C_AcknowledgeConfig
                0x0000000000000000       0x6c ls1c102_i2c.o
 .text.I2C_ReadRegister
                0x0000000000000000       0x50 ls1c102_i2c.o
 .text.I2C_ClearFlag
                0x0000000000000000       0x48 ls1c102_i2c.o
 .text.I2C_GetStatus
                0x0000000000000000       0x5c ls1c102_i2c.o
 .text.I2C_ClearIT
                0x0000000000000000       0x50 ls1c102_i2c.o
 .text.I2C_BUSY
                0x0000000000000000       0x48 ls1c102_i2c.o
 .text.CAT24_Write_Int
                0x0000000000000000      0x140 ls1c102_i2c.o
 .text.CAT24_Read_Int
                0x0000000000000000      0x16c ls1c102_i2c.o
 .eh_frame      0x0000000000000000      0x310 ls1c102_i2c.o
 COMMON         0x0000000000000000        0x1 ls1c102_i2c.o
 .text          0x0000000000000000        0x0 ls1c102_ptimer.o
 .data          0x0000000000000000        0x0 ls1c102_ptimer.o
 .bss           0x0000000000000000        0x0 ls1c102_ptimer.o
 .text.TIM_GetCounter
                0x0000000000000000       0x34 ls1c102_ptimer.o
 .text.TIM_SetCounter
                0x0000000000000000       0x30 ls1c102_ptimer.o
 .text.TIM_SetCompare
                0x0000000000000000       0x30 ls1c102_ptimer.o
 .text.TIM_GetCompare
                0x0000000000000000       0x34 ls1c102_ptimer.o
 .eh_frame      0x0000000000000000      0x168 ls1c102_ptimer.o
 .text          0x0000000000000000        0x0 ls1c102_touch.o
 .data          0x0000000000000000        0x0 ls1c102_touch.o
 .bss           0x0000000000000000        0x0 ls1c102_touch.o
 .text.TOUCH_disablePollScan
                0x0000000000000000       0x34 ls1c102_touch.o
 .text.TOUCH_SetBaseVal
                0x0000000000000000       0x7c ls1c102_touch.o
 .text.Printf_KeyChannel
                0x0000000000000000       0x7c ls1c102_touch.o
 .text.Printf_KeyType
                0x0000000000000000       0x8c ls1c102_touch.o
 .text.Printf_KeyVal
                0x0000000000000000      0x268 ls1c102_touch.o
 .eh_frame      0x0000000000000000      0x2a0 ls1c102_touch.o
 .text          0x0000000000000000        0x0 ls1c102_vpwm.o
 .data          0x0000000000000000        0x0 ls1c102_vpwm.o
 .bss           0x0000000000000000        0x0 ls1c102_vpwm.o
 .text.vpwm_init_dma_bd
                0x0000000000000000       0x94 ls1c102_vpwm.o
 .text.vpwm_init_dma_bell
                0x0000000000000000       0xd0 ls1c102_vpwm.o
 .text.vpwm_init_dma_tips
                0x0000000000000000       0x94 ls1c102_vpwm.o
 .eh_frame      0x0000000000000000       0xc8 ls1c102_vpwm.o
 .text          0x0000000000000000        0x0 peri_test_sum.o
 .data          0x0000000000000000        0x0 peri_test_sum.o
 .bss           0x0000000000000000        0x0 peri_test_sum.o
 .text.cmdline  0x0000000000000000      0xdbc peri_test_sum.o
 .bss.num       0x0000000000000000        0x4 peri_test_sum.o
 .text.GPIO_test
                0x0000000000000000      0x258 peri_test_sum.o
 .text.PWM_motor_test
                0x0000000000000000      0x180 peri_test_sum.o
 .text.PWM_servo_test
                0x0000000000000000      0x260 peri_test_sum.o
 .text.apb_test
                0x0000000000000000      0x10c peri_test_sum.o
 .text.hpet_test
                0x0000000000000000      0x1f0 peri_test_sum.o
 .text.I2C_test
                0x0000000000000000      0x2a8 peri_test_sum.o
 .text.SPI_test
                0x0000000000000000      0x1e0 peri_test_sum.o
 .eh_frame      0x0000000000000000      0x184 peri_test_sum.o
 .text          0x0000000000000000        0x0 calIn8M.o
 .data          0x0000000000000000        0x0 calIn8M.o
 .bss           0x0000000000000000        0x0 calIn8M.o
 .text.check_clock
                0x0000000000000000       0xd0 calIn8M.o
 .rodata        0x0000000000000000       0x9e calIn8M.o
 .text.buad_test
                0x0000000000000000       0x68 calIn8M.o
 .text.test_8m_out
                0x0000000000000000       0xa0 calIn8M.o
 .text.cal_in8m_touch
                0x0000000000000000      0x204 calIn8M.o
 .text.test_cal_in8m_touch_scan
                0x0000000000000000      0x1c0 calIn8M.o
 .comment       0x0000000000000000       0x12 calIn8M.o
 .eh_frame      0x0000000000000000       0xc8 calIn8M.o
 .text          0x0000000000000000        0x0 touch.o
 .data          0x0000000000000000        0x0 touch.o
 .bss           0x0000000000000000        0x0 touch.o
 .text.ls1c102_touch_init
                0x0000000000000000       0xfc touch.o
 .rodata        0x0000000000000000       0x56 touch.o
 .text.ls102_touch_test
                0x0000000000000000       0xb8 touch.o
 .text.ls102_touch_basval_init
                0x0000000000000000      0x18c touch.o
 .comment       0x0000000000000000       0x12 touch.o
 .eh_frame      0x0000000000000000       0x84 touch.o
 .text          0x0000000000000000        0x0 uartTest.o
 .data          0x0000000000000000        0x0 uartTest.o
 .bss           0x0000000000000000        0x0 uartTest.o
 .bss.g_recvCache
                0x0000000000000000      0x100 uartTest.o
 .text.recv_buf_init
                0x0000000000000000       0x5c uartTest.o
 .rodata        0x0000000000000000       0x22 uartTest.o
 .text.test_uart_recv
                0x0000000000000000       0x8c uartTest.o
 .text.test_uart_send
                0x0000000000000000       0x7c uartTest.o
 .eh_frame      0x0000000000000000       0xa8 uartTest.o
 .text          0x0000000000000000        0x0 Buffer.o
 .data          0x0000000000000000        0x0 Buffer.o
 .bss           0x0000000000000000        0x0 Buffer.o
 .text.Buffer_set
                0x0000000000000000       0x90 Buffer.o
 .text.Buffer_setReadData
                0x0000000000000000       0x94 Buffer.o
 .text.Buffer_reset
                0x0000000000000000       0x4c Buffer.o
 .text.Buffer_clear
                0x0000000000000000       0x88 Buffer.o
 .text.Buffer_canWrite
                0x0000000000000000       0x40 Buffer.o
 .text.Buffer_freeSize
                0x0000000000000000       0x44 Buffer.o
 .text.Buffer_read
                0x0000000000000000       0x98 Buffer.o
 .text.Buffer_readShort
                0x0000000000000000       0x7c Buffer.o
 .text.Buffer_readInt
                0x0000000000000000       0x74 Buffer.o
 .text.Buffer_writeShort
                0x0000000000000000       0x70 Buffer.o
 .text.Buffer_writeInt
                0x0000000000000000       0x6c Buffer.o
 .text.Buffer_charToHalfChar
                0x0000000000000000       0xa4 Buffer.o
 .text.Buffer_readHexChar
                0x0000000000000000       0xa4 Buffer.o
 .eh_frame      0x0000000000000000      0x220 Buffer.o
 .text          0x0000000000000000        0x0 main.o
 .data          0x0000000000000000        0x0 main.o
 .bss           0x0000000000000000        0x0 main.o
 .eh_frame      0x0000000000000000       0x38 main.o
 .text          0x0000000000000000        0x0 1c102_cmd.o
 .data          0x0000000000000000        0x0 1c102_cmd.o
 .bss           0x0000000000000000        0x0 1c102_cmd.o
 .text.sleep    0x0000000000000000       0xa4 1c102_cmd.o
 .eh_frame      0x0000000000000000      0x550 1c102_cmd.o
 .text          0x0000000000000000        0x0 1c102_Interrupt.o
 .data          0x0000000000000000        0x0 1c102_Interrupt.o
 .bss           0x0000000000000000        0x0 1c102_Interrupt.o
 .text.SOFT_INT
                0x0000000000000000       0x34 1c102_Interrupt.o
 .text.TIMER_8M_INT
                0x0000000000000000       0x44 1c102_Interrupt.o
 .eh_frame      0x0000000000000000      0x5e4 1c102_Interrupt.o
 COMMON         0x0000000000000000       0x80 1c102_Interrupt.o

Memory Configuration

Name             Origin             Length             Attributes
flash            0x000000001c000000 0x0000000000010000 r
iram             0x0000000080000000 0x0000000000001000 rw
dram             0x0000000080001000 0x0000000000001000 rw
*default*        0x0000000000000000 0xffffffffffffffff

Linker script and memory map


.text           0x000000001c000000     0x7c28
                0x000000001c000000                . = ALIGN (0x4)
 *(.text .text.*)
 .text._start   0x000000001c000000     0x1128 start.o
                0x000000001c000000                _start
                0x000000001c0000a8                cpu_wait
 .text          0x000000001c001128       0xbc serial.o
                0x000000001c001128                serial_out
                0x000000001c001144                outputaddr
                0x000000001c0011a4                outputstring
 .text          0x000000001c0011e4      0x148 wakeup.o
                0x000000001c0011e4                cpu_sleep
                0x000000001c00128c                wakeup_reset
 .text.DisableInt
                0x000000001c00132c       0x24 ls1x_common.o
                0x000000001c00132c                DisableInt
 .text.EnableInt
                0x000000001c001350       0x24 ls1x_common.o
                0x000000001c001350                EnableInt
 .text.Set_Timer_stop
                0x000000001c001374       0x20 ls1x_common.o
                0x000000001c001374                Set_Timer_stop
 .text.Set_Timer_clear
                0x000000001c001394       0x24 ls1x_common.o
                0x000000001c001394                Set_Timer_clear
 .text.Set_Timer_Init
                0x000000001c0013b8       0x30 ls1x_common.o
                0x000000001c0013b8                Set_Timer_Init
 .text.Wake_Set
                0x000000001c0013e8       0xac ls1x_common.o
                0x000000001c0013e8                Wake_Set
 .text.EXTI_Init
                0x000000001c001494      0x190 ls1x_exti.o
                0x000000001c001494                EXTI_Init
 .text.EXTI_StructInit
                0x000000001c001624       0x48 ls1x_exti.o
                0x000000001c001624                EXTI_StructInit
 .text.EXTI_ClearITPendingBit
                0x000000001c00166c       0x3c ls1x_exti.o
                0x000000001c00166c                EXTI_ClearITPendingBit
 .text.AFIO_RemapConfig
                0x000000001c0016a8       0xcc ls1x_gpio.o
                0x000000001c0016a8                AFIO_RemapConfig
 .text.get_count
                0x000000001c001774       0x2c ls1x_latimer.o
                0x000000001c001774                get_count
 .text.open_count
                0x000000001c0017a0       0x24 ls1x_latimer.o
                0x000000001c0017a0                open_count
 .text.close_count
                0x000000001c0017c4       0x24 ls1x_latimer.o
                0x000000001c0017c4                close_count
 .text.start_count
                0x000000001c0017e8       0x48 ls1x_latimer.o
                0x000000001c0017e8                start_count
 .text.stop_count
                0x000000001c001830       0x88 ls1x_latimer.o
                0x000000001c001830                stop_count
 .text.delay_cycle
                0x000000001c0018b8       0x68 ls1x_latimer.o
                0x000000001c0018b8                delay_cycle
 .text.delay_us
                0x000000001c001920       0x38 ls1x_latimer.o
                0x000000001c001920                delay_us
 .text.delay_ms
                0x000000001c001958       0x40 ls1x_latimer.o
                0x000000001c001958                delay_ms
 .text.delay_s  0x000000001c001998       0x3c ls1x_latimer.o
                0x000000001c001998                delay_s
 .text.myputchar
                0x000000001c0019d4       0x3c ls1x_printf.o
                0x000000001c0019d4                myputchar
 .text.printbase
                0x000000001c001a10      0x160 ls1x_printf.o
                0x000000001c001a10                printbase
 .text.ls1x_puts
                0x000000001c001b70       0x70 ls1x_printf.o
                0x000000001c001b70                ls1x_puts
 .text.myprintf
                0x000000001c001be0      0x3a4 ls1x_printf.o
                0x000000001c001be0                myprintf
 .text.Rtc_Read
                0x000000001c001f84       0xec ls1x_rtc.o
                0x000000001c001f84                Rtc_Read
 .text.Rtc_Write
                0x000000001c002070      0x16c ls1x_rtc.o
                0x000000001c002070                Rtc_Write
 .text.RtcUpdateData
                0x000000001c0021dc       0x4c ls1x_rtc.o
                0x000000001c0021dc                RtcUpdateData
 .text.Spi_Write_Read_1to4
                0x000000001c002228       0xf0 ls1x_spi.o
                0x000000001c002228                Spi_Write_Read_1to4
 .text.Spi_Write_Read_N
                0x000000001c002318      0x124 ls1x_spi.o
                0x000000001c002318                Spi_Write_Read_N
 .text.Spi_Cs_Down
                0x000000001c00243c       0x58 ls1x_spi.o
                0x000000001c00243c                Spi_Cs_Down
 .text.Spi_Cs_Up
                0x000000001c002494       0x54 ls1x_spi.o
                0x000000001c002494                Spi_Cs_Up
 .text.Spiflash_Rdsr
                0x000000001c0024e8       0x4c ls1x_spi.o
                0x000000001c0024e8                Spiflash_Rdsr
 .text.Spiflash_Wait_Wip_Zero
                0x000000001c002534       0x38 ls1x_spi.o
                0x000000001c002534                Spiflash_Wait_Wip_Zero
 .text.Spiflash_Wren
                0x000000001c00256c       0x4c ls1x_spi.o
                0x000000001c00256c                Spiflash_Wren
 .text.Spiflash_Rdid
                0x000000001c0025b8       0x68 ls1x_spi.o
                0x000000001c0025b8                Spiflash_Rdid
 .text.Spiflash_Block64k_Erase
                0x000000001c002620       0x90 ls1x_spi.o
                0x000000001c002620                Spiflash_Block64k_Erase
 .text.Spiflash_Page_Program
                0x000000001c0026b0       0xa4 ls1x_spi.o
                0x000000001c0026b0                Spiflash_Page_Program
 .text.Spiflash_Read_Bytes
                0x000000001c002754       0x9c ls1x_spi.o
                0x000000001c002754                Spiflash_Read_Bytes
 .text.strcmp   0x000000001c0027f0       0x84 ls1x_string.o
                0x000000001c0027f0                strcmp
 .text.Uart_init
                0x000000001c002874       0xb0 ls1x_uart.o
                0x000000001c002874                Uart_init
 .text.UART_SendData
                0x000000001c002924       0x4c ls1x_uart.o
                0x000000001c002924                UART_SendData
 .text.WDG_SetWatchDog
                0x000000001c002970       0x4c ls1x_wdg.o
                0x000000001c002970                WDG_SetWatchDog
 .text.WDG_DogFeed
                0x000000001c0029bc       0x2c ls1x_wdg.o
                0x000000001c0029bc                WDG_DogFeed
 .text.gpio_init
                0x000000001c0029e8       0xf8 soc_gpio.o
                0x000000001c0029e8                gpio_init
 .text.gpio_write
                0x000000001c002ae0       0xf8 soc_gpio.o
                0x000000001c002ae0                gpio_write
 .text.soc_myputchar
                0x000000001c002bd8       0x5c soc_printf.o
                0x000000001c002bd8                soc_myputchar
 .text.soc_puts
                0x000000001c002c34       0x70 soc_printf.o
                0x000000001c002c34                soc_puts
 .text.soc_printbase
                0x000000001c002ca4      0x160 soc_printf.o
                0x000000001c002ca4                soc_printbase
 .text.soc_myprintf
                0x000000001c002e04      0x3f4 soc_printf.o
                0x000000001c002e04                soc_myprintf
 .text.I2C_Init
                0x000000001c0031f8      0x104 ls1c102_i2c.o
                0x000000001c0031f8                I2C_Init
 .text.I2C_StructInit
                0x000000001c0032fc       0x5c ls1c102_i2c.o
                0x000000001c0032fc                I2C_StructInit
 .text.I2C_GenerateSTOP
                0x000000001c003358       0x6c ls1c102_i2c.o
                0x000000001c003358                I2C_GenerateSTOP
 .text.I2C_SendData
                0x000000001c0033c4       0x50 ls1c102_i2c.o
                0x000000001c0033c4                I2C_SendData
 .text.I2C_ReceiveData
                0x000000001c003414       0x60 ls1c102_i2c.o
                0x000000001c003414                I2C_ReceiveData
 .text.I2C_Send7bitAddress
                0x000000001c003474       0xac ls1c102_i2c.o
                0x000000001c003474                I2C_Send7bitAddress
 .text.I2C_wait
                0x000000001c003520       0x48 ls1c102_i2c.o
                0x000000001c003520                I2C_wait
 .text.I2C_Unlock
                0x000000001c003568       0x54 ls1c102_i2c.o
                0x000000001c003568                I2C_Unlock
 .text.CAT24_Write
                0x000000001c0035bc      0x15c ls1c102_i2c.o
                0x000000001c0035bc                CAT24_Write
 .text.CAT24_Read
                0x000000001c003718      0x160 ls1c102_i2c.o
                0x000000001c003718                CAT24_Read
 .text.TIM_Init
                0x000000001c003878       0xd8 ls1c102_ptimer.o
                0x000000001c003878                TIM_Init
 .text.TIM_StructInit
                0x000000001c003950       0x7c ls1c102_ptimer.o
                0x000000001c003950                TIM_StructInit
 .text.TIM_Cmd  0x000000001c0039cc       0x54 ls1c102_ptimer.o
                0x000000001c0039cc                TIM_Cmd
 .text.TIM_ITConfig
                0x000000001c003a20       0x90 ls1c102_ptimer.o
                0x000000001c003a20                TIM_ITConfig
 .text.TIM_GetITStatus
                0x000000001c003ab0       0x4c ls1c102_ptimer.o
                0x000000001c003ab0                TIM_GetITStatus
 .text.TIM_ClearIT
                0x000000001c003afc       0x5c ls1c102_ptimer.o
                0x000000001c003afc                TIM_ClearIT
 .text.Touch_CountBaseInit
                0x000000001c003b58       0x90 ls1c102_touch.o
                0x000000001c003b58                Touch_CountBaseInit
 .text.Touch_PerformInit
                0x000000001c003be8       0x88 ls1c102_touch.o
                0x000000001c003be8                Touch_PerformInit
 .text.Touch_ControlConfig
                0x000000001c003c70       0xc8 ls1c102_touch.o
                0x000000001c003c70                Touch_ControlConfig
 .text.TOUCH_Cmd
                0x000000001c003d38       0x68 ls1c102_touch.o
                0x000000001c003d38                TOUCH_Cmd
 .text.TOUCH_GetBaseVal
                0x000000001c003da0       0x4c ls1c102_touch.o
                0x000000001c003da0                TOUCH_GetBaseVal
 .text.TOUCH_GetCountValue
                0x000000001c003dec       0x4c ls1c102_touch.o
                0x000000001c003dec                TOUCH_GetCountValue
 .text.TOUCH_EnablePollScan
                0x000000001c003e38       0x30 ls1c102_touch.o
                0x000000001c003e38                TOUCH_EnablePollScan
 .text.TOUCH_EnableSingleScan
                0x000000001c003e68       0x30 ls1c102_touch.o
                0x000000001c003e68                TOUCH_EnableSingleScan
 .text.TOUCH_SetDownTh
                0x000000001c003e98       0x7c ls1c102_touch.o
                0x000000001c003e98                TOUCH_SetDownTh
 .text.TOUCH_SetChnAttr
                0x000000001c003f14       0x7c ls1c102_touch.o
                0x000000001c003f14                TOUCH_SetChnAttr
 .text.TOUCH_SetAllChnAttr
                0x000000001c003f90       0x64 ls1c102_touch.o
                0x000000001c003f90                TOUCH_SetAllChnAttr
 .text.TOUCH_Init
                0x000000001c003ff4       0xfc ls1c102_touch.o
                0x000000001c003ff4                TOUCH_Init
 .text.Printf_CountVal
                0x000000001c0040f0       0xec ls1c102_touch.o
                0x000000001c0040f0                Printf_CountVal
 .text.dma_reset
                0x000000001c0041dc       0x5c ls1c102_vpwm.o
                0x000000001c0041dc                dma_reset
 .text.dma_start
                0x000000001c004238       0xb0 ls1c102_vpwm.o
                0x000000001c004238                dma_start
 .text.do_exit  0x000000001c0042e8       0x28 peri_test_sum.o
                0x000000001c0042e8                do_exit
 .text.do_help  0x000000001c004310      0x208 peri_test_sum.o
                0x000000001c004310                do_help
 .text.uart_test
                0x000000001c004518      0x2e0 peri_test_sum.o
                0x000000001c004518                uart_test
 .text.recv_dat_int
                0x000000001c0047f8       0x50 uartTest.o
                0x000000001c0047f8                recv_dat_int
 .text.Buffer_write
                0x000000001c004848       0xdc Buffer.o
                0x000000001c004848                Buffer_write
 .text.main     0x000000001c004924       0x2c main.o
                0x000000001c004924                main
 .text.do_nothing
                0x000000001c004950       0x20 1c102_cmd.o
                0x000000001c004950                do_nothing
 .text.do_d1    0x000000001c004970      0x114 1c102_cmd.o
                0x000000001c004970                do_d1
 .text.do_d4    0x000000001c004a84      0x120 1c102_cmd.o
                0x000000001c004a84                do_d4
 .text.do_m1    0x000000001c004ba4       0x90 1c102_cmd.o
                0x000000001c004ba4                do_m1
 .text.do_m4    0x000000001c004c34       0x8c 1c102_cmd.o
                0x000000001c004c34                do_m4
 .text.str2num  0x000000001c004cc0      0x214 1c102_cmd.o
                0x000000001c004cc0                str2num
 .text.v_play   0x000000001c004ed4       0xac 1c102_cmd.o
                0x000000001c004ed4                v_play
 .text.touch_reg_show
                0x000000001c004f80      0x100 1c102_cmd.o
                0x000000001c004f80                touch_reg_show
 .text.touch_value_show
                0x000000001c005080       0xd4 1c102_cmd.o
                0x000000001c005080                touch_value_show
 .text.touch_test
                0x000000001c005154      0x2b4 1c102_cmd.o
                0x000000001c005154                touch_test
 .text.hpet     0x000000001c005408      0x100 1c102_cmd.o
                0x000000001c005408                hpet
 .text.latimer  0x000000001c005508       0x94 1c102_cmd.o
                0x000000001c005508                latimer
 .text.delay    0x000000001c00559c      0x104 1c102_cmd.o
                0x000000001c00559c                delay
 .text.wakeup   0x000000001c0056a0       0x90 1c102_cmd.o
                0x000000001c0056a0                wakeup
 .text.a_to_n   0x000000001c005730       0x60 1c102_cmd.o
                0x000000001c005730                a_to_n
 .text.date     0x000000001c005790      0x720 1c102_cmd.o
                0x000000001c005790                date
 .text.watch_dog
                0x000000001c005eb0       0x84 1c102_cmd.o
                0x000000001c005eb0                watch_dog
 .text.i2cp     0x000000001c005f34       0x4c 1c102_cmd.o
                0x000000001c005f34                i2cp
 .text.i2cw     0x000000001c005f80      0x10c 1c102_cmd.o
                0x000000001c005f80                i2cw
 .text.i2cr     0x000000001c00608c       0xe0 1c102_cmd.o
                0x000000001c00608c                i2cr
 .text.adc      0x000000001c00616c      0x1a4 1c102_cmd.o
                0x000000001c00616c                adc
 .text.batdet   0x000000001c006310      0x170 1c102_cmd.o
                0x000000001c006310                batdet
 .text.copy     0x000000001c006480      0x190 1c102_cmd.o
                0x000000001c006480                copy
 .text.uart_init
                0x000000001c006610       0xac 1c102_cmd.o
                0x000000001c006610                uart_init
 .text.spi_init
                0x000000001c0066bc       0x68 1c102_cmd.o
                0x000000001c0066bc                spi_init
 .text.spi_write
                0x000000001c006724      0x130 1c102_cmd.o
                0x000000001c006724                spi_write
 .text.spi_read
                0x000000001c006854      0x170 1c102_cmd.o
                0x000000001c006854                spi_read
 .text.spi_erase
                0x000000001c0069c4       0x90 1c102_cmd.o
                0x000000001c0069c4                spi_erase
 .text.spi_flash
                0x000000001c006a54      0x254 1c102_cmd.o
                0x000000001c006a54                spi_flash
 .text.gpio_int_test
                0x000000001c006ca8       0x94 1c102_cmd.o
                0x000000001c006ca8                gpio_int_test
 .text.gpio_int
                0x000000001c006d3c       0x34 1c102_cmd.o
                0x000000001c006d3c                gpio_int
 .text.tmp      0x000000001c006d70       0x2c 1c102_cmd.o
                0x000000001c006d70                tmp
 .text.copy_iram
                0x000000001c006d9c      0x138 1c102_cmd.o
                0x000000001c006d9c                copy_iram
 .text.exti_gpioa0_irq_handler
                0x000000001c006ed4       0x4c 1c102_Interrupt.o
                0x000000001c006ed4                exti_gpioa0_irq_handler
 .text.exti_gpioa1_irq_handler
                0x000000001c006f20       0x4c 1c102_Interrupt.o
                0x000000001c006f20                exti_gpioa1_irq_handler
 .text.exti_gpioa2_irq_handler
                0x000000001c006f6c       0x4c 1c102_Interrupt.o
                0x000000001c006f6c                exti_gpioa2_irq_handler
 .text.exti_gpioa3_irq_handler
                0x000000001c006fb8       0x4c 1c102_Interrupt.o
                0x000000001c006fb8                exti_gpioa3_irq_handler
 .text.exti_gpioa4_irq_handler
                0x000000001c007004       0x4c 1c102_Interrupt.o
                0x000000001c007004                exti_gpioa4_irq_handler
 .text.exti_gpioa5_irq_handler
                0x000000001c007050       0x4c 1c102_Interrupt.o
                0x000000001c007050                exti_gpioa5_irq_handler
 .text.exti_gpioa6_irq_handler
                0x000000001c00709c       0x4c 1c102_Interrupt.o
                0x000000001c00709c                exti_gpioa6_irq_handler
 .text.exti_gpioa7_irq_handler
                0x000000001c0070e8       0x4c 1c102_Interrupt.o
                0x000000001c0070e8                exti_gpioa7_irq_handler
 .text.exti_gpiob0_irq_handler
                0x000000001c007134       0x4c 1c102_Interrupt.o
                0x000000001c007134                exti_gpiob0_irq_handler
 .text.exti_gpiob1_irq_handler
                0x000000001c007180       0x4c 1c102_Interrupt.o
                0x000000001c007180                exti_gpiob1_irq_handler
 .text.exti_gpiob2_irq_handler
                0x000000001c0071cc       0x4c 1c102_Interrupt.o
                0x000000001c0071cc                exti_gpiob2_irq_handler
 .text.exti_gpiob3_irq_handler
                0x000000001c007218       0x4c 1c102_Interrupt.o
                0x000000001c007218                exti_gpiob3_irq_handler
 .text.exti_gpiob4_irq_handler
                0x000000001c007264       0x4c 1c102_Interrupt.o
                0x000000001c007264                exti_gpiob4_irq_handler
 .text.exti_gpiob5_irq_handler
                0x000000001c0072b0       0x4c 1c102_Interrupt.o
                0x000000001c0072b0                exti_gpiob5_irq_handler
 .text.exti_gpiob6_irq_handler
                0x000000001c0072fc       0x4c 1c102_Interrupt.o
                0x000000001c0072fc                exti_gpiob6_irq_handler
 .text.exti_gpiob7_irq_handler
                0x000000001c007348       0x4c 1c102_Interrupt.o
                0x000000001c007348                exti_gpiob7_irq_handler
 .text.exti_gpioc0_irq_handler
                0x000000001c007394       0x4c 1c102_Interrupt.o
                0x000000001c007394                exti_gpioc0_irq_handler
 .text.exti_gpioc1_irq_handler
                0x000000001c0073e0       0x4c 1c102_Interrupt.o
                0x000000001c0073e0                exti_gpioc1_irq_handler
 .text.exti_gpioc2_irq_handler
                0x000000001c00742c       0x4c 1c102_Interrupt.o
                0x000000001c00742c                exti_gpioc2_irq_handler
 .text.exti_gpioc3_irq_handler
                0x000000001c007478       0x4c 1c102_Interrupt.o
                0x000000001c007478                exti_gpioc3_irq_handler
 .text.exti_gpioc4_irq_handler
                0x000000001c0074c4       0x4c 1c102_Interrupt.o
                0x000000001c0074c4                exti_gpioc4_irq_handler
 .text.exti_gpioc5_irq_handler
                0x000000001c007510       0x4c 1c102_Interrupt.o
                0x000000001c007510                exti_gpioc5_irq_handler
 .text.exti_gpioc6_irq_handler
                0x000000001c00755c       0x4c 1c102_Interrupt.o
                0x000000001c00755c                exti_gpioc6_irq_handler
 .text.exti_gpioc7_irq_handler
                0x000000001c0075a8       0x4c 1c102_Interrupt.o
                0x000000001c0075a8                exti_gpioc7_irq_handler
 .text.exti_gpiod0_irq_handler
                0x000000001c0075f4       0x4c 1c102_Interrupt.o
                0x000000001c0075f4                exti_gpiod0_irq_handler
 .text.exti_gpiod1_irq_handler
                0x000000001c007640       0x4c 1c102_Interrupt.o
                0x000000001c007640                exti_gpiod1_irq_handler
 .text.exti_gpiod2_irq_handler
                0x000000001c00768c       0x4c 1c102_Interrupt.o
                0x000000001c00768c                exti_gpiod2_irq_handler
 .text.exti_gpiod3_irq_handler
                0x000000001c0076d8       0x4c 1c102_Interrupt.o
                0x000000001c0076d8                exti_gpiod3_irq_handler
 .text.exti_gpiod4_irq_handler
                0x000000001c007724       0x4c 1c102_Interrupt.o
                0x000000001c007724                exti_gpiod4_irq_handler
 .text.exti_gpiod5_irq_handler
                0x000000001c007770       0x4c 1c102_Interrupt.o
                0x000000001c007770                exti_gpiod5_irq_handler
 .text.exti_gpiod6_irq_handler
                0x000000001c0077bc       0x4c 1c102_Interrupt.o
                0x000000001c0077bc                exti_gpiod6_irq_handler
 .text.exti_gpiod7_irq_handler
                0x000000001c007808       0x4c 1c102_Interrupt.o
                0x000000001c007808                exti_gpiod7_irq_handler
 .text.ext_handler
                0x000000001c007854       0xd0 1c102_Interrupt.o
                0x000000001c007854                ext_handler
 .text.TIMER_WAKE_INT
                0x000000001c007924       0x48 1c102_Interrupt.o
                0x000000001c007924                TIMER_WAKE_INT
 .text.TOUCH    0x000000001c00796c       0x8c 1c102_Interrupt.o
                0x000000001c00796c                TOUCH
 .text.UART2_INT
                0x000000001c0079f8       0x3c 1c102_Interrupt.o
                0x000000001c0079f8                UART2_INT
 .text.BAT_FAIL
                0x000000001c007a34       0xd8 1c102_Interrupt.o
                0x000000001c007a34                BAT_FAIL
 .text.intc_handler
                0x000000001c007b0c       0xe4 1c102_Interrupt.o
                0x000000001c007b0c                intc_handler
 .text.TIMER_HANDLER
                0x000000001c007bf0       0x38 1c102_Interrupt.o
                0x000000001c007bf0                TIMER_HANDLER
                0x000000001c007c28                . = ALIGN (0x4)
                0x000000001c007c28                _etext = .

.rodata         0x000000001c007c40     0x173c
                0x000000001c007c40                . = ALIGN (0x4)
 *(.rodata .rodata.*)
 .rodata        0x000000001c007c40       0x1a serial.o
                0x000000001c007c40                msg_wakeup
 *fill*         0x000000001c007c5a        0x2 
 .rodata.myprintf
                0x000000001c007c5c      0x150 ls1x_printf.o
 .rodata.soc_myprintf
                0x000000001c007dac      0x150 soc_printf.o
 .rodata        0x000000001c007efc       0xaf ls1c102_i2c.o
 *fill*         0x000000001c007fab        0x1 
 .rodata        0x000000001c007fac       0xa2 ls1c102_touch.o
 *fill*         0x000000001c00804e        0x2 
 .rodata        0x000000001c008050      0x5c6 peri_test_sum.o
 *fill*         0x000000001c008616        0x2 
 .rodata        0x000000001c008618      0x881 1c102_cmd.o
 *fill*         0x000000001c008e99        0x3 
 .rodata        0x000000001c008e9c      0x10e 1c102_Interrupt.o
 *fill*         0x000000001c008faa        0x2 
 .rodata.Ext_IrqHandle
                0x000000001c008fac       0x80 1c102_Interrupt.o
                0x000000001c008fac                Ext_IrqHandle
 .rodata.BAT_FAIL
                0x000000001c00902c       0x44 1c102_Interrupt.o
 .rodata.__FUNCTION__.1570
                0x000000001c009070       0x18 1c102_Interrupt.o
 .rodata.__FUNCTION__.1574
                0x000000001c009088       0x18 1c102_Interrupt.o
 .rodata.__FUNCTION__.1578
                0x000000001c0090a0       0x18 1c102_Interrupt.o
 .rodata.__FUNCTION__.1582
                0x000000001c0090b8       0x18 1c102_Interrupt.o
 .rodata.__FUNCTION__.1586
                0x000000001c0090d0       0x18 1c102_Interrupt.o
 .rodata.__FUNCTION__.1590
                0x000000001c0090e8       0x18 1c102_Interrupt.o
 .rodata.__FUNCTION__.1594
                0x000000001c009100       0x18 1c102_Interrupt.o
 .rodata.__FUNCTION__.1598
                0x000000001c009118       0x18 1c102_Interrupt.o
 .rodata.__FUNCTION__.1602
                0x000000001c009130       0x18 1c102_Interrupt.o
 .rodata.__FUNCTION__.1606
                0x000000001c009148       0x18 1c102_Interrupt.o
 .rodata.__FUNCTION__.1610
                0x000000001c009160       0x18 1c102_Interrupt.o
 .rodata.__FUNCTION__.1614
                0x000000001c009178       0x18 1c102_Interrupt.o
 .rodata.__FUNCTION__.1618
                0x000000001c009190       0x18 1c102_Interrupt.o
 .rodata.__FUNCTION__.1622
                0x000000001c0091a8       0x18 1c102_Interrupt.o
 .rodata.__FUNCTION__.1626
                0x000000001c0091c0       0x18 1c102_Interrupt.o
 .rodata.__FUNCTION__.1630
                0x000000001c0091d8       0x18 1c102_Interrupt.o
 .rodata.__FUNCTION__.1634
                0x000000001c0091f0       0x18 1c102_Interrupt.o
 .rodata.__FUNCTION__.1638
                0x000000001c009208       0x18 1c102_Interrupt.o
 .rodata.__FUNCTION__.1642
                0x000000001c009220       0x18 1c102_Interrupt.o
 .rodata.__FUNCTION__.1646
                0x000000001c009238       0x18 1c102_Interrupt.o
 .rodata.__FUNCTION__.1650
                0x000000001c009250       0x18 1c102_Interrupt.o
 .rodata.__FUNCTION__.1654
                0x000000001c009268       0x18 1c102_Interrupt.o
 .rodata.__FUNCTION__.1658
                0x000000001c009280       0x18 1c102_Interrupt.o
 .rodata.__FUNCTION__.1662
                0x000000001c009298       0x18 1c102_Interrupt.o
 .rodata.__FUNCTION__.1666
                0x000000001c0092b0       0x18 1c102_Interrupt.o
 .rodata.__FUNCTION__.1670
                0x000000001c0092c8       0x18 1c102_Interrupt.o
 .rodata.__FUNCTION__.1674
                0x000000001c0092e0       0x18 1c102_Interrupt.o
 .rodata.__FUNCTION__.1678
                0x000000001c0092f8       0x18 1c102_Interrupt.o
 .rodata.__FUNCTION__.1682
                0x000000001c009310       0x18 1c102_Interrupt.o
 .rodata.__FUNCTION__.1686
                0x000000001c009328       0x18 1c102_Interrupt.o
 .rodata.__FUNCTION__.1690
                0x000000001c009340       0x18 1c102_Interrupt.o
 .rodata.__FUNCTION__.1694
                0x000000001c009358       0x18 1c102_Interrupt.o
 .rodata.__FUNCTION__.1703
                0x000000001c009370        0xc 1c102_Interrupt.o
                0x000000001c00937c                . = ALIGN (0x4)
                0x000000001c00937c                _sidata = ALIGN (., 0x4)
                0x000000001c00937c                . = ALIGN (0x4)

.rela.dyn       0x000000001c00937c        0x0
 .rela.got      0x000000001c00937c        0x0 start.o
 .rela.rodata.myprintf
                0x000000001c00937c        0x0 start.o
 .rela.rodata.soc_myprintf
                0x000000001c00937c        0x0 start.o
 .rela.rodata   0x000000001c00937c        0x0 start.o
 .rela.rodata.Ext_IrqHandle
                0x000000001c00937c        0x0 start.o
 .rela.rodata.BAT_FAIL
                0x000000001c00937c        0x0 start.o

.data           0x0000000080001000        0xc load address 0x000000001c00937c
                0x0000000080001000                _sdata = .
                0x0000000080001000                . = ALIGN (0x4)
 *(.got.plt)
 .got.plt       0x0000000080001000        0x0 start.o
                0x0000000080001000                . = ALIGN (0x4)
 *(.got)
 .got           0x0000000080001000        0xc start.o
                0x0000000080001000                _GLOBAL_OFFSET_TABLE_
                0x000000008000100c                . = ALIGN (0x4)
 *(.data .data.*)
                0x000000008000100c                . = ALIGN (0x4)
                0x000000008000100c                _edata = .

.bss            0x0000000080000000        0x0
                0x0000000080000000                _sbss = .
                0x0000000080000000                . = ALIGN (0x4)
 *(.sbss)
                0x0000000080000000                . = ALIGN (0x4)
 *(.bss)
                0x0000000080000000                . = ALIGN (0x4)
 *(.scommon)
                0x0000000080000000                . = ALIGN (0x4)
 *(COMMON)
                0x0000000080000000                . = ALIGN (0x4)
                0x0000000080000000                _ebss = .
LOAD start.o
LOAD serial.o
LOAD wakeup.o
LOAD UserGpio.o
LOAD ls1x_clock.o
LOAD ls1x_common.o
LOAD ls1x_exti.o
LOAD ls1x_flash.o
LOAD ls1x_gpio.o
LOAD ls1x_latimer.o
LOAD ls1x_logo.o
LOAD ls1x_pmu.o
LOAD ls1x_printf.o
LOAD ls1x_rtc.o
LOAD ls1x_spi.o
LOAD ls1x_string.o
LOAD ls1x_uart.o
LOAD ls1x_wdg.o
LOAD soc_AT24CXX.o
LOAD soc_gpio.o
LOAD soc_hpet.o
LOAD soc_i2c.o
LOAD soc_printf.o
LOAD soc_pwm.o
LOAD soc_spi.o
LOAD soc_uart.o
LOAD soc_w25qxx.o
LOAD ls1c102_i2c.o
LOAD ls1c102_ptimer.o
LOAD ls1c102_touch.o
LOAD ls1c102_vpwm.o
LOAD peri_test_sum.o
LOAD calIn8M.o
LOAD touch.o
LOAD uartTest.o
LOAD Buffer.o
LOAD main.o
LOAD 1c102_cmd.o
LOAD 1c102_Interrupt.o
OUTPUT(1c102_demo.elf elf32-loongarch)

.bss.g_recv_flag
                0x0000000080000000        0x4
 .bss.g_recv_flag
                0x0000000080000000        0x4 uartTest.o

.bss.g_recvBuff
                0x0000000080000004       0x14
 .bss.g_recvBuff
                0x0000000080000004       0x14 uartTest.o

.comment        0x0000000000000000       0x11
 .comment       0x0000000000000000       0x11 ls1x_common.o
                                         0x12 (size before relaxing)
 .comment       0x0000000000000011       0x12 ls1x_exti.o
 .comment       0x0000000000000011       0x12 ls1x_gpio.o
 .comment       0x0000000000000011       0x12 ls1x_latimer.o
 .comment       0x0000000000000011       0x12 ls1x_printf.o
 .comment       0x0000000000000011       0x12 ls1x_rtc.o
 .comment       0x0000000000000011       0x12 ls1x_spi.o
 .comment       0x0000000000000011       0x12 ls1x_string.o
 .comment       0x0000000000000011       0x12 ls1x_uart.o
 .comment       0x0000000000000011       0x12 ls1x_wdg.o
 .comment       0x0000000000000011       0x12 soc_gpio.o
 .comment       0x0000000000000011       0x12 soc_printf.o
 .comment       0x0000000000000011       0x12 ls1c102_i2c.o
 .comment       0x0000000000000011       0x12 ls1c102_ptimer.o
 .comment       0x0000000000000011       0x12 ls1c102_touch.o
 .comment       0x0000000000000011       0x12 ls1c102_vpwm.o
 .comment       0x0000000000000011       0x12 peri_test_sum.o
 .comment       0x0000000000000011       0x12 uartTest.o
 .comment       0x0000000000000011       0x12 Buffer.o
 .comment       0x0000000000000011       0x12 main.o
 .comment       0x0000000000000011       0x12 1c102_cmd.o
 .comment       0x0000000000000011       0x12 1c102_Interrupt.o
